target datalayout = "e-m:e-p270:32:32-p271:32:32-p272:64:64-i64:64-i128:128-f80:128-n8:16:32:64-S128"
target triple = "x86_64-pc-linux-gnu"

%"class.Ipopt::FilterLSAcceptor" = type { %"class.Ipopt::BacktrackingLSAcceptor.base", double, double, double, double, double, double, double, double, double, double, double, i32, double, double, i32, i32, double, i8, i8, i32, i32, double, double, double, double, double, double, %"class.Ipopt::Filter", i8, i32, i32, %"class.Ipopt::SmartPtr.3" }
%"class.Ipopt::BacktrackingLSAcceptor.base" = type { %"class.Ipopt::AlgorithmStrategyObject.base" }
%"class.Ipopt::AlgorithmStrategyObject.base" = type <{ %"class.Ipopt::ReferencedObject.base", [4 x i8], %"class.Ipopt::SmartPtr", %"class.Ipopt::SmartPtr.0", %"class.Ipopt::SmartPtr.1", %"class.Ipopt::SmartPtr.2", i8 }>
%"class.Ipopt::ReferencedObject.base" = type <{ ptr, i32 }>
%"class.Ipopt::SmartPtr" = type { ptr }
%"class.Ipopt::SmartPtr.0" = type { ptr }
%"class.Ipopt::SmartPtr.1" = type { ptr }
%"class.Ipopt::SmartPtr.2" = type { ptr }
%"class.Ipopt::Filter" = type { i32, %"class.std::__cxx11::list" }
%"class.std::__cxx11::list" = type { %"class.std::__cxx11::_List_base" }
%"class.std::__cxx11::_List_base" = type { %"struct.std::__cxx11::_List_base<Ipopt::FilterEntry *, std::allocator<Ipopt::FilterEntry *>>::_List_impl" }
%"struct.std::__cxx11::_List_base<Ipopt::FilterEntry *, std::allocator<Ipopt::FilterEntry *>>::_List_impl" = type { %"struct.std::__detail::_List_node_header" }
%"struct.std::__detail::_List_node_header" = type { %"struct.std::__detail::_List_node_base", i64 }
%"struct.std::__detail::_List_node_base" = type { ptr, ptr }
%"class.Ipopt::SmartPtr.3" = type { ptr }

; Function Attrs: mustprogress nounwind uwtable
define void @_ZN5Ipopt16FilterLSAcceptor12StopWatchDogEv(ptr noundef nonnull align 8 dereferenceable(304) %0) unnamed_addr #5 align 2 {
  %2 = alloca ptr, align 8
  store ptr %0, ptr %2, align 8
  %3 = load ptr, ptr %2, align 8
  %4 = getelementptr inbounds %"class.Ipopt::FilterLSAcceptor", ptr %3, i32 0, i32 25
  %5 = load double, ptr %4, align 8
  %6 = getelementptr inbounds %"class.Ipopt::FilterLSAcceptor", ptr %3, i32 0, i32 22
  store double %5, ptr %6, align 8
  %7 = getelementptr inbounds %"class.Ipopt::FilterLSAcceptor", ptr %3, i32 0, i32 26
  %8 = load double, ptr %7, align 8
  %9 = getelementptr inbounds %"class.Ipopt::FilterLSAcceptor", ptr %3, i32 0, i32 23
  store double %8, ptr %9, align 8
  %10 = getelementptr inbounds %"class.Ipopt::FilterLSAcceptor", ptr %3, i32 0, i32 27
  %11 = load double, ptr %10, align 8
  %12 = getelementptr inbounds %"class.Ipopt::FilterLSAcceptor", ptr %3, i32 0, i32 24
  store double %11, ptr %12, align 8
  ret void
}