; Function Attrs: mustprogress nofree norecurse nosync nounwind willreturn memory(argmem: readwrite) uwtable
define void @_ZN5Ipopt16FilterLSAcceptor12StopWatchDogEv(ptr nocapture noundef nonnull align 8 dereferenceable(304) %0) unnamed_addr #8 align 2 {
  %2 = getelementptr inbounds i8, ptr %0, i64 224
  %3 = getelementptr inbounds i8, ptr %0, i64 200
  %4 = load <2 x double>, ptr %2, align 8
  store <2 x double> %4, ptr %3, align 8
  %5 = getelementptr inbounds i8, ptr %0, i64 240
  %6 = load double, ptr %5, align 8
  %7 = getelementptr inbounds i8, ptr %0, i64 216
  store double %6, ptr %7, align 8
  ret void
}